(dp0
I0
F0.0
sI1
F0.4185000000000002
sI2
F0.9855000000000027
sI3
F1.4058000000000015
sI4
F1.8882000000000003
sI5
F2.2189499999999995
sI6
F2.7225000000000006
sI7
F3.3507450000000034
sI8
F3.645945000000002
sI9
F4.20219
sI10
F4.303035000000001
s.