(dp0
I0
F0.0
sI1
F2.781
sI2
F5.242950000000002
sI3
F8.197200000000002
sI4
F10.835594999999998
sI5
F12.765825000000005
sI6
F16.092855
sI7
F17.6121
sI8
F20.137014000000004
sI9
F22.968634500000018
sI10
F25.01740349999997
sI11
F26.34430499999999
sI12
F29.10399749999995
sI13
F31.514683499999975
sI14
F32.63331149999998
sI15
F34.890498
sI16
F37.29658094999997
sI17
F38.56968899999996
sI18
F41.177070449999945
sI19
F42.52819994999995
sI20
F45.48834179999998
sI21
F45.71323919999999
sI22
F48.06886594499999
sI23
F50.00678234999996
sI24
F50.870756699999944
sI25
F52.40311739999997
sI26
F54.619177544999964
sI27
F56.65010129999997
sI28
F57.532156199999974
sI29
F58.52091064499994
sI30
F60.06615984
sI31
F61.05722692950001
sI32
F63.08461079999999
sI33
F63.38481182999998
sI34
F65.75385586499999
sI35
F66.21949755000004
sI36
F67.62859591949997
sI37
F69.33801919499997
sI38
F70.05557524500001
sI39
F71.65088154899996
sI40
F72.7308580995
sI41
F73.43724987000002
sI42
F74.953658619
sI43
F75.87517720499999
sI44
F76.57170669899999
sI45
F77.17928170499998
sI46
F78.40595724750001
sI47
F80.45280108450005
sI48
F81.25790198400004
sI49
F81.49695904800002
sI50
F82.64971918349998
sI51
F83.45060753895004
sI52
F84.91111192845003
sI53
F85.19227731450002
sI54
F85.64632361145004
sI55
F86.60913348149998
sI56
F87.75411387794996
sI57
F87.7594394304
sI58
F88.87943478194991
sI59
F89.70396404989496
sI60
F89.65815131700003
sI61
F91.14524352494995
sI62
F91.75344383385003
sI63
F91.84215353894997
sI64
F93.26177400379504
sI65
F93.90390284700003
sI66
F95.04082748474997
sI67
F95.23973896650003
sI68
F95.74045720379999
sI69
F95.81222533769999
sI70
F96.50502452668496
sI71
F97.17285189735003
sI72
F98.11880045189992
sI73
F97.98890719783947
sI74
F98.32975709908499
sI75
F99.34615282967992
sI76
F100.11370476023993
sI77
F100.38617483143948
sI78
F101.02405777843497
sI79
F101.44065211429495
sI80
F102.28734055543501
sI81
F102.38900008139994
sI82
F102.8488369675949
sI83
F103.13917254094498
sI84
F103.17161446753991
sI85
F104.31674001027444
sI86
F104.29254148328994
sI87
F104.63684276519994
sI88
F105.13170065313442
sI89
F105.64525831333495
sI90
F105.36018190406995
sI91
F106.11948306113995
sI92
F106.21800964412989
sI93
F106.54924800946485
sI94
F107.40567733551924
sI95
F106.9673241005099
sI96
F107.63077855670991
sI97
F108.11325583003988
sI98
F108.02738126385437
sI99
F108.61140103456493
sI100
F108.81480944295895
s.