(dp0
I0
F0.0
sI1
F0.26549999999999974
sI2
F0.6930000000000007
sI3
F0.9594000000000023
sI4
F1.2163500000000027
sI5
F1.6145999999999998
sI6
F1.8058499999999993
sI7
F2.1955950000000013
sI8
F2.5191000000000012
sI9
F2.997945000000002
sI10
F2.9507400000000006
sI11
F3.510495000000002
sI12
F3.8412450000000034
sI13
F4.00392
sI14
F4.267890000000001
sI15
F4.720590000000001
sI16
F4.826115000000002
sI17
F5.265540000000002
sI18
F5.458229999999998
sI19
F5.874615000000002
sI20
F6.000570000000002
s.