(dp0
I0
F0.0
sI1
F1.4490000000000038
sI2
F2.759850000000002
sI3
F4.129200000000003
sI4
F5.4666
sI5
F6.566940000000004
sI6
F7.964550000000003
sI7
F9.042390000000005
sI8
F10.148085000000007
sI9
F10.978155000000001
sI10
F12.210885000000005
sI11
F13.063004999999986
sI12
F14.098549499999992
sI13
F14.848515000000011
sI14
F15.836759999999995
sI15
F16.620254999999986
sI16
F17.214093000000013
sI17
F18.127264500000006
sI18
F18.85621499999999
sI19
F19.490224500000007
sI20
F20.09007449999999
s.