(dp0
I0
F0.0
sI1
F0.22949999999999982
sI2
F0.44595000000000035
sI3
F0.6075000000000004
sI4
F0.8154000000000012
sI5
F1.0147500000000018
sI6
F1.2262500000000012
sI7
F1.5147000000000004
sI8
F1.6456949999999997
sI9
F1.8193499999999987
sI10
F2.3255999999999997
s.