(dp0
I0
F0.0
sI1
F0.6255000000000012
sI2
F1.261350000000003
sI3
F1.8904500000000002
sI4
F2.3652
sI5
F2.9938500000000006
sI6
F3.624795000000004
sI7
F4.113045000000005
sI8
F4.59774
sI9
F5.350095000000002
sI10
F5.8284899999999995
sI11
F6.576930000000005
sI12
F7.100055
sI13
F7.364115000000003
sI14
F7.792695000000002
sI15
F8.582805000000004
sI16
F8.905005000000003
sI17
F9.529874999999997
sI18
F10.077349499999999
sI19
F10.446039
sI20
F10.861965000000003
s.