(dp0
I0
F0.0
sI1
F1.6425
sI2
F3.2494500000000013
sI3
F5.121450000000002
sI4
F6.942600000000002
sI5
F8.140140000000004
sI6
F10.143135000000001
sI7
F11.41888500000001
sI8
F13.360725
sI9
F14.545439999999996
sI10
F16.13934
sI11
F17.820405
sI12
F19.276290000000003
sI13
F20.953575000000004
sI14
F21.30345
sI15
F23.57155349999998
sI16
F24.266974949999984
sI17
F25.521673500000002
sI18
F28.037942999999988
sI19
F28.564087499999964
sI20
F31.333684499999976
sI21
F31.403564999999976
sI22
F31.65106049999996
sI23
F33.47359694999996
sI24
F34.12192544999997
sI25
F36.30385529999999
sI26
F37.254051899999965
sI27
F38.01415994999998
sI28
F39.60431734499998
sI29
F40.52442874499998
sI30
F42.05847194999994
sI31
F44.16879420000001
sI32
F45.08045639999996
sI33
F45.80352944999995
sI34
F46.62015704999997
sI35
F46.80629869499998
sI36
F48.75727904999998
sI37
F49.37967494999999
sI38
F50.397519689999974
sI39
F50.931292049999996
sI40
F51.980534549999994
sI41
F52.96112554499995
sI42
F53.492317694999976
sI43
F55.45662488999999
sI44
F56.05093304999998
sI45
F56.29344844499996
sI46
F56.56531059000001
sI47
F58.55669923499997
sI48
F59.97673534499998
sI49
F58.93325073
sI50
F61.562923199999986
sI51
F62.95166914499996
sI52
F61.47854540999999
sI53
F63.601413795
sI54
F63.85840354444498
sI55
F65.74171796999995
sI56
F65.21081432400005
sI57
F67.52166394499997
sI58
F67.01338968299997
sI59
F67.57590635999996
sI60
F68.99252202
sI61
F69.31619334449995
sI62
F69.56228407499998
sI63
F70.24696679744997
sI64
F71.28666050894999
sI65
F73.29134845394998
sI66
F73.10183944949999
sI67
F72.63829867950001
sI68
F73.80904861350004
sI69
F75.25574235900002
sI70
F75.26783048399997
sI71
F75.99734628299998
sI72
F76.68279867194997
sI73
F77.352676443
sI74
F77.33167275784504
sI75
F77.90184689894998
sI76
F79.068509424
sI77
F79.16970274649996
sI78
F79.75087213094994
sI79
F80.940870018
sI80
F80.74338191649002
sI81
F81.31281656940007
sI82
F82.36083157299
sI83
F82.77029316900003
sI84
F83.63630124225
sI85
F83.80438017839998
sI86
F84.36955599630004
sI87
F84.77674640190004
sI88
F85.55107357894498
sI89
F86.01633077238449
sI90
F85.93153745944502
sI91
F86.21423789445
sI92
F86.833765621395
sI93
F87.96362186879996
sI94
F87.70219006139996
sI95
F88.58784960134997
sI96
F88.91245462729499
sI97
F89.20729262524948
sI98
F89.51769772519496
sI99
F89.99486992485001
sI100
F89.99348887444494
s.