(dp0
I0
F0.0
sI1
F0.7155000000000019
sI2
F1.5075000000000032
sI3
F2.178899999999999
sI4
F2.7774000000000014
sI5
F3.6486000000000076
sI6
F4.315500000000003
sI7
F5.080499999999993
sI8
F5.748299999999997
sI9
F6.605549999999999
sI10
F7.142894999999998
s.