(dp0
I0
F0.0
sI1
F0.9675000000000034
sI2
F1.8967500000000026
sI3
F2.8764000000000034
sI4
F3.77415000000001
sI5
F4.649894999999997
sI6
F5.481944999999993
sI7
F6.381585000000002
sI8
F7.187130000000005
sI9
F8.045235000000003
sI10
F8.829630000000002
s.