(dp0
I0
F0.0
sI1
F3.2804999999999995
sI2
F6.700500000000003
sI3
F10.06659
sI4
F12.988935000000003
sI5
F15.948315000000001
sI6
F18.90391499999999
sI7
F21.525138000000002
sI8
F24.123690000000007
sI9
F26.608634999999964
sI10
F29.608424999999997
sI11
F32.431563000000004
sI12
F34.79962499999997
sI13
F37.56577049999998
sI14
F39.82104899999995
sI15
F41.18072849999999
sI16
F44.509009499999955
sI17
F45.854270999999954
sI18
F48.30992234999995
sI19
F50.40145669499997
sI20
F52.6433958
sI21
F54.354637349999955
sI22
F55.44700906499997
sI23
F58.02232013999996
sI24
F60.37677674999998
sI25
F60.83933354999996
sI26
F63.503089244999984
sI27
F64.94318464499997
sI28
F66.72856009499996
sI29
F68.59290293999997
sI30
F70.04368381949996
sI31
F71.21412233999996
sI32
F72.44757706500002
sI33
F74.36828636999996
sI34
F75.32288455499999
sI35
F77.27205744
sI36
F78.14007788445001
sI37
F79.74155048399999
sI38
F80.85281908500004
sI39
F81.58597515449999
sI40
F82.65511720845001
sI41
F84.06895599449997
sI42
F84.96288441449998
sI43
F86.31333095400001
sI44
F87.0427751445
sI45
F88.54622438400001
sI46
F89.56267078050004
sI47
F90.40185221895004
sI48
F91.36452339000003
sI49
F92.0916356094
sI50
F92.92639172399991
sI51
F94.00846274189999
sI52
F94.23163145250003
sI53
F95.32566148994992
sI54
F96.71885197650003
sI55
F96.49733677470002
sI56
F98.02534337279994
sI57
F98.43555586544997
sI58
F99.06470987894998
sI59
F99.97564300739995
sI60
F100.32626898899994
sI61
F101.31805385280003
sI62
F101.5694352616995
sI63
F102.55076647829998
sI64
F103.15268056484994
sI65
F104.10980824214988
sI66
F103.76701419869994
sI67
F104.63797655189992
sI68
F105.2316776457
sI69
F105.51844588099492
sI70
F106.34656226138999
sI71
F106.53208449929994
sI72
F107.2576137042
sI73
F107.4215670322499
sI74
F107.52844323793492
sI75
F108.3743643713399
sI76
F108.6407772129944
sI77
F109.19336214708443
sI78
F109.52970864898487
sI79
F110.19424343363993
sI80
F110.57314668574489
sI81
F110.46757042768935
sI82
F110.74676749888482
sI83
F111.34130697621437
sI84
F111.59635178461491
sI85
F111.84132166631991
sI86
F112.30397928841491
sI87
F112.4714104417394
sI88
F112.65885879151938
sI89
F112.90994912546994
sI90
F113.22604282846491
sI91
F113.77991850952945
sI92
F113.64575153747379
sI93
F114.04884474918443
sI94
F114.24642769665442
sI95
F114.5877453127263
sI96
F115.04916893344488
sI97
F115.0512465163593
sI98
F115.32460633052837
sI99
F115.39910315619437
sI100
F115.65604577152342
s.