(dp0
I0
F0.0
sI1
F1.952999999999999
sI2
F4.104450000000001
sI3
F5.634449999999999
sI4
F7.750044000000002
sI5
F9.23319
sI6
F11.465685000000002
sI7
F12.978674999999999
sI8
F15.074279999999987
sI9
F16.625700000000005
sI10
F18.31842
sI11
F20.45331
sI12
F22.165244999999985
sI13
F23.63301
sI14
F25.120484999999984
sI15
F26.273069999999997
sI16
F28.101329999999997
sI17
F29.87171999999998
sI18
F31.072931999999987
sI19
F32.75945999999998
sI20
F34.550775
sI21
F36.629910449999976
sI22
F36.79961849999998
sI23
F38.59210349999998
sI24
F40.06313594999999
sI25
F41.12044199999998
sI26
F42.59164499999995
sI27
F44.38667339999996
sI28
F45.83012894999996
sI29
F47.406838949999944
sI30
F48.323715749999955
sI31
F49.59011249999997
sI32
F50.95444049999996
sI33
F51.71458684499995
sI34
F53.607950999999936
sI35
F54.268327799999994
sI36
F55.78217189999996
sI37
F57.06430289999996
sI38
F58.582206000000006
sI39
F58.49480789999996
sI40
F60.51774464999996
sI41
F61.24617814499999
sI42
F62.847875699999946
sI43
F63.64522484999992
sI44
F64.33786934999993
sI45
F65.88843129000001
sI46
F66.89858175
sI47
F67.71489974999999
sI48
F69.21614204999997
sI49
F69.78888719999995
sI50
F70.62366824999998
sI51
F71.24765894999997
sI52
F71.94627234
sI53
F73.80958814999997
sI54
F73.718784
sI55
F74.91125029499993
sI56
F75.44414078999995
sI57
F76.71520484999994
sI58
F77.38568459999999
sI59
F78.13856673450003
sI60
F79.42327708500002
sI61
F80.37570473999996
sI62
F81.48586513499997
sI63
F81.82017823500001
sI64
F82.52918329949996
sI65
F83.115251145
sI66
F84.43417243499998
sI67
F84.59301874499997
sI68
F85.48880917949998
sI69
F86.18983393500001
sI70
F87.30588397499997
sI71
F87.47021146500005
sI72
F88.86891501000005
sI73
F88.89650243999996
sI74
F90.10644097949998
sI75
F90.36429012
sI76
F90.78898909499998
sI77
F91.29630263400003
sI78
F92.30667169499996
sI79
F93.02153660999993
sI80
F93.50152866000002
sI81
F94.086195669
sI82
F94.87301966999996
sI83
F95.317087635
sI84
F95.66175933000001
sI85
F96.5164781744999
sI86
F96.93753952949996
sI87
F97.10182903499998
sI88
F98.05651411950006
sI89
F98.32247154899999
sI90
F99.033533955
sI91
F99.21029347800003
sI92
F99.78068594249999
sI93
F100.78385841449999
sI94
F100.587500019
sI95
F101.241668655
sI96
F101.77302393449997
sI97
F101.98040431500002
sI98
F102.15557348445
sI99
F102.62743075799997
sI100
F103.25991691349996
s.