(dp0
I0
F0.0
sI1
F0.8145000000000026
sI2
F1.6978500000000032
sI3
F2.481299999999999
sI4
F3.275550000000006
sI5
F4.167450000000002
sI6
F4.934249999999998
sI7
F5.66235
sI8
F6.466050000000003
sI9
F7.281000000000002
sI10
F7.8961500000000004
sI11
F8.74755
sI12
F9.362745000000013
sI13
F10.27629
sI14
F10.969740000000002
sI15
F11.709450000000004
sI16
F12.195045000000004
sI17
F13.314150000000001
sI18
F13.765139999999999
sI19
F14.57689500000001
sI20
F15.151815000000008
s.